target datalayout = "e-m:e-p270:32:32-p271:32:32-p272:64:64-i64:64-i128:128-f80:128-n8:16:32:64-S128"
target triple = "x86_64-pc-linux-gnu"

%"class.std::__shared_count" = type { ptr }
%"class.duckdb::ColumnReader" = type { ptr, ptr, ptr, i64, i8, ptr, ptr, i64, i64, i64, %"class.duckdb::shared_ptr", %"class.duckdb::ResizeableBuffer", i32, %"class.duckdb::unique_ptr.11", %"class.duckdb::unique_ptr.11", %"class.duckdb::DictionaryDecoder", %"class.duckdb::DeltaBinaryPackedDecoder", %"class.duckdb::RLEDecoder", %"class.duckdb::DeltaLengthByteArrayDecoder", %"class.duckdb::DeltaByteArrayDecoder", %"class.duckdb::ByteStreamSplitDecoder", [2 x %"class.duckdb::ResizeableBuffer"] }
%"class.duckdb::shared_ptr" = type { %"class.std::shared_ptr" }
%"class.std::shared_ptr" = type { %"class.std::__shared_ptr" }
%"class.std::__shared_ptr" = type { ptr, %"class.std::__shared_count" }
%"class.duckdb::ResizeableBuffer" = type { %"class.duckdb::ByteBuffer", %"class.duckdb::AllocatedData", i64 }
%"class.duckdb::ByteBuffer" = type { ptr, i64 }
%"class.duckdb::AllocatedData" = type { %"class.duckdb::optional_ptr", ptr, i64 }
%"class.duckdb::optional_ptr" = type { ptr }
%"class.duckdb::unique_ptr.11" = type { %"class.std::unique_ptr.12" }
%"class.std::unique_ptr.12" = type { %"struct.std::__uniq_ptr_data.13" }
%"struct.std::__uniq_ptr_data.13" = type { %"class.std::__uniq_ptr_impl.14" }
%"class.std::__uniq_ptr_impl.14" = type { %"class.std::tuple.15" }
%"class.std::tuple.15" = type { %"struct.std::_Tuple_impl.16" }
%"struct.std::_Tuple_impl.16" = type { %"struct.std::_Head_base.19" }
%"struct.std::_Head_base.19" = type { ptr }
%"class.duckdb::DictionaryDecoder" = type { ptr, ptr, %"class.duckdb::unique_ptr.11", %"struct.duckdb::SelectionVector", %"struct.duckdb::SelectionVector", i64, %"class.duckdb::unique_ptr.24", %"class.duckdb::unique_ptr.33", i64, i8, %"class.std::__cxx11::basic_string" }
%"struct.duckdb::SelectionVector" = type { ptr, %"class.duckdb::shared_ptr.20" }
%"class.duckdb::shared_ptr.20" = type { %"class.std::shared_ptr.21" }
%"class.std::shared_ptr.21" = type { %"class.std::__shared_ptr.22" }
%"class.std::__shared_ptr.22" = type { ptr, %"class.std::__shared_count" }
%"class.duckdb::unique_ptr.24" = type { %"class.std::unique_ptr.25" }
%"class.std::unique_ptr.25" = type { %"struct.std::__uniq_ptr_data.26" }
%"struct.std::__uniq_ptr_data.26" = type { %"class.std::__uniq_ptr_impl.27" }
%"class.std::__uniq_ptr_impl.27" = type { %"class.std::tuple.28" }
%"class.std::tuple.28" = type { %"struct.std::_Tuple_impl.29" }
%"struct.std::_Tuple_impl.29" = type { %"struct.std::_Head_base.32" }
%"struct.std::_Head_base.32" = type { ptr }
%"class.duckdb::unique_ptr.33" = type { %"class.std::unique_ptr.34" }
%"class.std::unique_ptr.34" = type { %"struct.std::__uniq_ptr_data.35" }
%"struct.std::__uniq_ptr_data.35" = type { %"class.std::__uniq_ptr_impl.36" }
%"class.std::__uniq_ptr_impl.36" = type { %"class.std::tuple.37" }
%"class.std::tuple.37" = type { %"struct.std::_Tuple_impl.38" }
%"struct.std::_Tuple_impl.38" = type { %"struct.std::_Head_base.41" }
%"struct.std::_Head_base.41" = type { ptr }
%"class.std::__cxx11::basic_string" = type { %"struct.std::__cxx11::basic_string<char>::_Alloc_hider", i64, %union.anon }
%"struct.std::__cxx11::basic_string<char>::_Alloc_hider" = type { ptr }
%union.anon = type { i64, [8 x i8] }
%"class.duckdb::DeltaBinaryPackedDecoder" = type { ptr, ptr, %"class.duckdb::unique_ptr.42" }
%"class.duckdb::unique_ptr.42" = type { %"class.std::unique_ptr.43" }
%"class.std::unique_ptr.43" = type { %"struct.std::__uniq_ptr_data.44" }
%"struct.std::__uniq_ptr_data.44" = type { %"class.std::__uniq_ptr_impl.45" }
%"class.std::__uniq_ptr_impl.45" = type { %"class.std::tuple.46" }
%"class.std::tuple.46" = type { %"struct.std::_Tuple_impl.47" }
%"struct.std::_Tuple_impl.47" = type { %"struct.std::_Head_base.50" }
%"struct.std::_Head_base.50" = type { ptr }
%"class.duckdb::RLEDecoder" = type { ptr, ptr, %"class.duckdb::unique_ptr.11" }
%"class.duckdb::DeltaLengthByteArrayDecoder" = type { ptr, ptr, i64, i64 }
%"class.duckdb::DeltaByteArrayDecoder" = type { ptr, %"class.duckdb::unique_ptr.24", i64, i64 }
%"class.duckdb::ByteStreamSplitDecoder" = type { ptr, ptr, %"class.duckdb::unique_ptr.51" }
%"class.duckdb::unique_ptr.51" = type { %"class.std::unique_ptr.52" }
%"class.std::unique_ptr.52" = type { %"struct.std::__uniq_ptr_data.53" }
%"struct.std::__uniq_ptr_data.53" = type { %"class.std::__uniq_ptr_impl.54" }
%"class.std::__uniq_ptr_impl.54" = type { %"class.std::tuple.55" }
%"class.std::tuple.55" = type { %"struct.std::_Tuple_impl.56" }
%"struct.std::_Tuple_impl.56" = type { %"struct.std::_Head_base.59" }
%"struct.std::_Head_base.59" = type { ptr }
%"class.duckdb::unique_ptr" = type { %"class.std::unique_ptr" }
%"class.std::unique_ptr" = type { %"struct.std::__uniq_ptr_data" }
%"struct.std::__uniq_ptr_data" = type { %"class.std::__uniq_ptr_impl" }
%"class.std::__uniq_ptr_impl" = type { %"class.std::tuple" }
%"class.std::tuple" = type { %"struct.std::_Tuple_impl" }
%"struct.std::_Tuple_impl" = type { %"struct.std::_Head_base.1" }
%"struct.std::_Head_base.1" = type { ptr }
%"class.duckdb::DataChunk" = type { %"class.duckdb::vector", i64, i64, %"class.duckdb::vector.63" }
%"class.duckdb::vector" = type { %"class.std::vector" }
%"class.std::vector" = type { %"struct.std::_Vector_base" }
%"struct.std::_Vector_base" = type { %"struct.std::_Vector_base<duckdb::Vector, std::allocator<duckdb::Vector>>::_Vector_impl" }
%"struct.std::_Vector_base<duckdb::Vector, std::allocator<duckdb::Vector>>::_Vector_impl" = type { %"struct.std::_Vector_base<duckdb::Vector, std::allocator<duckdb::Vector>>::_Vector_impl_data" }
%"struct.std::_Vector_base<duckdb::Vector, std::allocator<duckdb::Vector>>::_Vector_impl_data" = type { ptr, ptr, ptr }
%"class.duckdb::vector.63" = type { %"class.std::vector.64" }
%"class.std::vector.64" = type { %"struct.std::_Vector_base.65" }
%"struct.std::_Vector_base.65" = type { %"struct.std::_Vector_base<duckdb::VectorCache, std::allocator<duckdb::VectorCache>>::_Vector_impl" }
%"struct.std::_Vector_base<duckdb::VectorCache, std::allocator<duckdb::VectorCache>>::_Vector_impl" = type { %"struct.std::_Vector_base<duckdb::VectorCache, std::allocator<duckdb::VectorCache>>::_Vector_impl_data" }
%"struct.std::_Vector_base<duckdb::VectorCache, std::allocator<duckdb::VectorCache>>::_Vector_impl_data" = type { ptr, ptr, ptr }
%"class.duckdb::ExpressionColumnReader" = type { %"class.duckdb::ColumnReader", %"class.duckdb::unique_ptr", %"class.duckdb::DataChunk", %"class.duckdb::unique_ptr.211", %"class.duckdb::ExpressionExecutor" }
%"class.duckdb::unique_ptr.211" = type { %"class.std::unique_ptr.212" }
%"class.std::unique_ptr.212" = type { %"struct.std::__uniq_ptr_data.213" }
%"struct.std::__uniq_ptr_data.213" = type { %"class.std::__uniq_ptr_impl.214" }
%"class.std::__uniq_ptr_impl.214" = type { %"class.std::tuple.215" }
%"class.std::tuple.215" = type { %"struct.std::_Tuple_impl.216" }
%"struct.std::_Tuple_impl.216" = type { %"struct.std::_Head_base.219" }
%"struct.std::_Head_base.219" = type { ptr }
%"class.duckdb::ExpressionExecutor" = type { %"class.duckdb::vector.220", ptr, %"class.duckdb::optional_ptr.226", %"class.duckdb::vector.227" }
%"class.duckdb::vector.220" = type { %"class.std::vector.221" }
%"class.std::vector.221" = type { %"struct.std::_Vector_base.222" }
%"struct.std::_Vector_base.222" = type { %"struct.std::_Vector_base<const duckdb::Expression *, std::allocator<const duckdb::Expression *>>::_Vector_impl" }
%"struct.std::_Vector_base<const duckdb::Expression *, std::allocator<const duckdb::Expression *>>::_Vector_impl" = type { %"struct.std::_Vector_base<const duckdb::Expression *, std::allocator<const duckdb::Expression *>>::_Vector_impl_data" }
%"struct.std::_Vector_base<const duckdb::Expression *, std::allocator<const duckdb::Expression *>>::_Vector_impl_data" = type { ptr, ptr, ptr }
%"class.duckdb::optional_ptr.226" = type { ptr }
%"class.duckdb::vector.227" = type { %"class.std::vector.228" }
%"class.std::vector.228" = type { %"struct.std::_Vector_base.229" }
%"struct.std::_Vector_base.229" = type { %"struct.std::_Vector_base<duckdb::unique_ptr<duckdb::ExpressionExecutorState>, std::allocator<duckdb::unique_ptr<duckdb::ExpressionExecutorState>>>::_Vector_impl" }
%"struct.std::_Vector_base<duckdb::unique_ptr<duckdb::ExpressionExecutorState>, std::allocator<duckdb::unique_ptr<duckdb::ExpressionExecutorState>>>::_Vector_impl" = type { %"struct.std::_Vector_base<duckdb::unique_ptr<duckdb::ExpressionExecutorState>, std::allocator<duckdb::unique_ptr<duckdb::ExpressionExecutorState>>>::_Vector_impl_data" }
%"struct.std::_Vector_base<duckdb::unique_ptr<duckdb::ExpressionExecutorState>, std::allocator<duckdb::unique_ptr<duckdb::ExpressionExecutorState>>>::_Vector_impl_data" = type { ptr, ptr, ptr }

; Function Attrs: inlinehint mustprogress nounwind uwtable
define linkonce_odr void @_ZN6duckdb9DataChunk14SetCardinalityEm(ptr noundef nonnull align 8 dereferenceable(64) %0, i64 noundef %1) #5 comdat align 2 {
  %3 = alloca ptr, align 8
  %4 = alloca i64, align 8
  store ptr %0, ptr %3, align 8, !tbaa !271
  store i64 %1, ptr %4, align 8, !tbaa !206
  %5 = load ptr, ptr %3, align 8
  %6 = load i64, ptr %4, align 8, !tbaa !206
  %7 = getelementptr inbounds nuw %"class.duckdb::DataChunk", ptr %5, i32 0, i32 1
  store i64 %6, ptr %7, align 8, !tbaa !273
  ret void
}

; Function Attrs: mustprogress uwtable
define noundef i64 @_ZN6duckdb22ExpressionColumnReader4ReadEmPhS1_RNS_6VectorE(ptr noundef nonnull align 8 dereferenceable(688) %0, i64 noundef %1, ptr noundef %2, ptr noundef %3, ptr noundef nonnull align 8 dereferenceable(104) %4) unnamed_addr #4 align 2 {
  %6 = alloca ptr, align 8
  %7 = alloca i64, align 8
  %8 = alloca ptr, align 8
  %9 = alloca ptr, align 8
  %10 = alloca ptr, align 8
  %11 = alloca ptr, align 8
  %12 = alloca i64, align 8
  store ptr %0, ptr %6, align 8, !tbaa !257
  store i64 %1, ptr %7, align 8, !tbaa !206
  store ptr %2, ptr %8, align 8, !tbaa !210
  store ptr %3, ptr %9, align 8, !tbaa !210
  store ptr %4, ptr %10, align 8, !tbaa !211
  %13 = load ptr, ptr %6, align 8
  %14 = getelementptr inbounds nuw %"class.duckdb::ExpressionColumnReader", ptr %13, i32 0, i32 2
  call void @_ZN6duckdb9DataChunk5ResetEv(ptr noundef nonnull align 8 dereferenceable(64) %14)
  call void @llvm.lifetime.start.p0(i64 8, ptr %11) #3
  %15 = getelementptr inbounds nuw %"class.duckdb::ExpressionColumnReader", ptr %13, i32 0, i32 2
  %16 = getelementptr inbounds nuw %"class.duckdb::DataChunk", ptr %15, i32 0, i32 0
  %17 = call noundef nonnull align 8 dereferenceable(104) ptr @_ZN6duckdb6vectorINS_6VectorELb1EEixEm(ptr noundef nonnull align 8 dereferenceable(24) %16, i64 noundef 0)
  store ptr %17, ptr %11, align 8, !tbaa !211
  call void @llvm.lifetime.start.p0(i64 8, ptr %12) #3
  %18 = getelementptr inbounds nuw %"class.duckdb::ExpressionColumnReader", ptr %13, i32 0, i32 1
  %19 = call noundef ptr @_ZNK6duckdb10unique_ptrINS_12ColumnReaderESt14default_deleteIS1_ELb1EEptEv(ptr noundef nonnull align 8 dereferenceable(8) %18)
  %20 = load i64, ptr %7, align 8, !tbaa !206
  %21 = load ptr, ptr %8, align 8, !tbaa !210
  %22 = load ptr, ptr %9, align 8, !tbaa !210
  %23 = load ptr, ptr %11, align 8, !tbaa !211
  %24 = load ptr, ptr %19, align 8, !tbaa !12
  %25 = getelementptr inbounds ptr, ptr %24, i64 3
  %26 = load ptr, ptr %25, align 8
  %27 = call noundef i64 %26(ptr noundef nonnull align 8 dereferenceable(544) %19, i64 noundef %20, ptr noundef %21, ptr noundef %22, ptr noundef nonnull align 8 dereferenceable(104) %23)
  store i64 %27, ptr %12, align 8, !tbaa !206
  %28 = getelementptr inbounds nuw %"class.duckdb::ExpressionColumnReader", ptr %13, i32 0, i32 2
  %29 = load i64, ptr %12, align 8, !tbaa !206
  call void @_ZN6duckdb9DataChunk14SetCardinalityEm(ptr noundef nonnull align 8 dereferenceable(64) %28, i64 noundef %29)
  %30 = getelementptr inbounds nuw %"class.duckdb::ExpressionColumnReader", ptr %13, i32 0, i32 4
  %31 = getelementptr inbounds nuw %"class.duckdb::ExpressionColumnReader", ptr %13, i32 0, i32 2
  %32 = load ptr, ptr %10, align 8, !tbaa !211
  call void @_ZN6duckdb18ExpressionExecutor17ExecuteExpressionERNS_9DataChunkERNS_6VectorE(ptr noundef nonnull align 8 dereferenceable(64) %30, ptr noundef nonnull align 8 dereferenceable(64) %31, ptr noundef nonnull align 8 dereferenceable(104) %32)
  %33 = load i64, ptr %12, align 8, !tbaa !206
  call void @llvm.lifetime.end.p0(i64 8, ptr %12) #3
  call void @llvm.lifetime.end.p0(i64 8, ptr %11) #3
  ret i64 %33
}