; Function Attrs: mustprogress uwtable
define noundef i64 @_ZN6duckdb22ExpressionColumnReader4ReadEmPhS1_RNS_6VectorE(ptr noundef nonnull align 8 dereferenceable(688) %0, i64 noundef %1, ptr noundef %2, ptr noundef %3, ptr noundef nonnull align 8 dereferenceable(104) %4) unnamed_addr #3 align 2 {
  %6 = getelementptr inbounds nuw i8, ptr %0, i64 552
  tail call void @_ZN6duckdb9DataChunk5ResetEv(ptr noundef nonnull align 8 dereferenceable(64) %6)
  %7 = tail call noundef nonnull align 8 dereferenceable(104) ptr @_ZN6duckdb6vectorINS_6VectorELb1EEixEm(ptr noundef nonnull align 8 dereferenceable(24) %6, i64 noundef 0)
  %8 = getelementptr inbounds nuw i8, ptr %0, i64 544
  %9 = tail call noundef ptr @_ZNK6duckdb10unique_ptrINS_12ColumnReaderESt14default_deleteIS1_ELb1EEptEv(ptr noundef nonnull align 8 dereferenceable(8) %8)
  %10 = load ptr, ptr %9, align 8, !tbaa !3
  %11 = getelementptr inbounds nuw i8, ptr %10, i64 24
  %12 = load ptr, ptr %11, align 8
  %13 = tail call noundef i64 %12(ptr noundef nonnull align 8 dereferenceable(544) %9, i64 noundef %1, ptr noundef %2, ptr noundef %3, ptr noundef nonnull align 8 dereferenceable(104) %7)
  %14 = getelementptr inbounds nuw i8, ptr %0, i64 576
  store i64 %13, ptr %14, align 8, !tbaa !269
  %15 = getelementptr inbounds nuw i8, ptr %0, i64 624
  tail call void @_ZN6duckdb18ExpressionExecutor17ExecuteExpressionERNS_9DataChunkERNS_6VectorE(ptr noundef nonnull align 8 dereferenceable(64) %15, ptr noundef nonnull align 8 dereferenceable(64) %6, ptr noundef nonnull align 8 dereferenceable(104) %4)
  ret i64 %13
}